; Function Attrs: mustprogress nofree norecurse nosync nounwind willreturn memory(readwrite, inaccessiblemem: none) uwtable
define dso_local void @_ZNK5Model6normalEii(ptr dead_on_unwind noalias writable writeonly sret(%struct.vec) align 8 captures(none) initializes((0, 24)) %0, ptr noundef nonnull readonly align 8 captures(none) dereferenceable(264) %1, i32 noundef %2, i32 noundef %3) local_unnamed_addr #17 align 2 {
  %5 = getelementptr inbounds nuw i8, ptr %1, i64 24
  %6 = getelementptr inbounds nuw i8, ptr %1, i64 96
  %7 = mul nsw i32 %2, 3
  %8 = add nsw i32 %7, %3
  %9 = sext i32 %8 to i64
  %10 = load ptr, ptr %6, align 8, !tbaa !87
  %11 = getelementptr inbounds nuw i32, ptr %10, i64 %9
  %12 = load i32, ptr %11, align 4, !tbaa !43
  %13 = sext i32 %12 to i64
  %14 = load ptr, ptr %5, align 8, !tbaa !51
  %15 = getelementptr inbounds nuw %struct.vec, ptr %14, i64 %13
  tail call void @llvm.memcpy.p0.p0.i64(ptr noundef nonnull align 8 dereferenceable(24) %0, ptr noundef nonnull align 8 dereferenceable(24) %15, i64 24, i1 false), !tbaa.struct !48
  ret void
}